; Function Attrs: nofree norecurse nosync nounwind memory(read, argmem: readwrite, inaccessiblemem: none) uwtable
define i64 @HUFv07_decompress1X2(ptr noundef %0, i64 noundef %1, ptr noundef %2, i64 noundef %3) local_unnamed_addr #12 {
  %5 = alloca [2049 x i32], align 16
  call void @llvm.lifetime.start.p0(i64 8196, ptr nonnull %5) #26
  call void @llvm.memset.p0.i64(ptr noundef nonnull align 16 dereferenceable(8196) %5, i8 0, i64 8196, i1 false)
  store i32 184549387, ptr %5, align 16
  %6 = call i64 @HUFv07_readDTableX2(ptr noundef nonnull %5, ptr noundef %2, i64 noundef %3)
  %7 = icmp ult i64 %6, -119
  br i1 %7, label %8, label %HUFv07_decompress1X2_DCtx.exit

8:                                                ; preds = %4
  %.not19.i = icmp ult i64 %6, %3
  br i1 %.not19.i, label %9, label %HUFv07_decompress1X2_DCtx.exit

9:                                                ; preds = %8
  %10 = getelementptr inbounds nuw i8, ptr %2, i64 %6
  %11 = sub nuw i64 %3, %6
  %12 = call fastcc i64 @HUFv07_decompress1X2_usingDTable_internal(ptr noundef %0, i64 noundef %1, ptr noundef nonnull %10, i64 noundef %11, ptr noundef nonnull %5)
  br label %HUFv07_decompress1X2_DCtx.exit

HUFv07_decompress1X2_DCtx.exit:                   ; preds = %4, %8, %9
  %.0.i = phi i64 [ %12, %9 ], [ %6, %4 ], [ -72, %8 ]
  call void @llvm.lifetime.end.p0(i64 8196, ptr nonnull %5) #26
  ret i64 %.0.i
}